target datalayout = "e-m:e-p270:32:32-p271:32:32-p272:64:64-i64:64-i128:128-f80:128-n8:16:32:64-S128"
target triple = "x86_64-pc-linux-gnu"

%struct.AVIODirEntry = type { ptr, i32, i32, i64, i64, i64, i64, i64, i64, i64 }

; Function Attrs: nounwind uwtable
define ptr @ff_alloc_dir_entry() #0 {
  %1 = alloca ptr, align 8
  call void @llvm.lifetime.start.p0(i64 8, ptr %1) #9
  %2 = call noalias ptr @av_mallocz(i64 noundef 72)
  store ptr %2, ptr %1, align 8, !tbaa !41
  %3 = load ptr, ptr %1, align 8, !tbaa !41
  %4 = icmp ne ptr %3, null
  br i1 %4, label %5, label %22

5:                                                ; preds = %0
  %6 = load ptr, ptr %1, align 8, !tbaa !41
  %7 = getelementptr inbounds nuw %struct.AVIODirEntry, ptr %6, i32 0, i32 1
  store i32 0, ptr %7, align 8, !tbaa !43
  %8 = load ptr, ptr %1, align 8, !tbaa !41
  %9 = getelementptr inbounds nuw %struct.AVIODirEntry, ptr %8, i32 0, i32 3
  store i64 -1, ptr %9, align 8, !tbaa !45
  %10 = load ptr, ptr %1, align 8, !tbaa !41
  %11 = getelementptr inbounds nuw %struct.AVIODirEntry, ptr %10, i32 0, i32 4
  store i64 -1, ptr %11, align 8, !tbaa !46
  %12 = load ptr, ptr %1, align 8, !tbaa !41
  %13 = getelementptr inbounds nuw %struct.AVIODirEntry, ptr %12, i32 0, i32 5
  store i64 -1, ptr %13, align 8, !tbaa !47
  %14 = load ptr, ptr %1, align 8, !tbaa !41
  %15 = getelementptr inbounds nuw %struct.AVIODirEntry, ptr %14, i32 0, i32 6
  store i64 -1, ptr %15, align 8, !tbaa !48
  %16 = load ptr, ptr %1, align 8, !tbaa !41
  %17 = getelementptr inbounds nuw %struct.AVIODirEntry, ptr %16, i32 0, i32 7
  store i64 -1, ptr %17, align 8, !tbaa !49
  %18 = load ptr, ptr %1, align 8, !tbaa !41
  %19 = getelementptr inbounds nuw %struct.AVIODirEntry, ptr %18, i32 0, i32 8
  store i64 -1, ptr %19, align 8, !tbaa !50
  %20 = load ptr, ptr %1, align 8, !tbaa !41
  %21 = getelementptr inbounds nuw %struct.AVIODirEntry, ptr %20, i32 0, i32 9
  store i64 -1, ptr %21, align 8, !tbaa !51
  br label %22

22:                                               ; preds = %5, %0
  %23 = load ptr, ptr %1, align 8, !tbaa !41
  call void @llvm.lifetime.end.p0(i64 8, ptr %1) #9
  ret ptr %23
}