; Function Attrs: nounwind uwtable
define noalias ptr @ff_alloc_dir_entry() local_unnamed_addr #0 {
  %1 = tail call noalias ptr @av_mallocz(i64 noundef 72) #12
  %.not = icmp eq ptr %1, null
  br i1 %.not, label %5, label %2

2:                                                ; preds = %0
  %3 = getelementptr inbounds nuw i8, ptr %1, i64 8
  store i32 0, ptr %3, align 8, !tbaa !33
  %4 = getelementptr inbounds nuw i8, ptr %1, i64 16
  tail call void @llvm.memset.p0.i64(ptr noundef nonnull align 8 dereferenceable(56) %4, i8 -1, i64 56, i1 false)
  br label %5

5:                                                ; preds = %2, %0
  ret ptr %1
}